; ModuleID = '24/1486.c'
source_filename = "24/1486.c"
target datalayout = "e-m:e-p270:32:32-p271:32:32-p272:64:64-i64:64-f80:128-n8:16:32:64-S128"
target triple = "x86_64-pc-linux-gnu"

@.str = private unnamed_addr constant [3 x i8] c"%c\00", align 1
@.str.1 = private unnamed_addr constant [4 x i8] c"%s\0A\00", align 1

; Function Attrs: noinline nounwind uwtable
define dso_local i32 @main() #0 {
  %1 = alloca i32, align 4
  %2 = alloca [250 x i8], align 16
  %3 = alloca [50 x [200 x i8]], align 16
  %4 = alloca [100 x i32], align 16
  %5 = alloca i32, align 4
  %6 = alloca i32, align 4
  %7 = alloca i32, align 4
  %8 = alloca i32, align 4
  %9 = alloca i32, align 4
  %10 = alloca i32, align 4
  %11 = alloca i32, align 4
  store i32 0, i32* %1, align 4
  store i32 0, i32* %6, align 4
  store i32 0, i32* %8, align 4
  store i32 0, i32* %9, align 4
  store i32 0, i32* %11, align 4
  store i32 0, i32* %5, align 4
  br label %12

12:                                               ; preds = %25, %0
  %13 = load i32, i32* %5, align 4
  %14 = sub nsw i32 %13, 1
  %15 = sext i32 %14 to i64
  %16 = getelementptr inbounds [250 x i8], [250 x i8]* %2, i64 0, i64 %15
  %17 = load i8, i8* %16, align 1
  %18 = sext i8 %17 to i32
  %19 = icmp ne i32 %18, 10
  br i1 %19, label %20, label %28

20:                                               ; preds = %12
  %21 = load i32, i32* %5, align 4
  %22 = sext i32 %21 to i64
  %23 = getelementptr inbounds [250 x i8], [250 x i8]* %2, i64 0, i64 %22
  %24 = call i32 (i8*, ...) @__isoc99_scanf(i8* getelementptr inbounds ([3 x i8], [3 x i8]* @.str, i64 0, i64 0), i8* %23)
  br label %25

25:                                               ; preds = %20
  %26 = load i32, i32* %5, align 4
  %27 = add nsw i32 %26, 1
  store i32 %27, i32* %5, align 4
  br label %12

28:                                               ; preds = %12
  %29 = load i32, i32* %5, align 4
  %30 = sub nsw i32 %29, 1
  %31 = sext i32 %30 to i64
  %32 = getelementptr inbounds [250 x i8], [250 x i8]* %2, i64 0, i64 %31
  store i8 0, i8* %32, align 1
  store i32 0, i32* %5, align 4
  br label %33

33:                                               ; preds = %79, %28
  %34 = load i32, i32* %5, align 4
  %35 = sext i32 %34 to i64
  %36 = getelementptr inbounds [250 x i8], [250 x i8]* %2, i64 0, i64 %35
  %37 = load i8, i8* %36, align 1
  %38 = sext i8 %37 to i32
  %39 = icmp ne i32 %38, 32
  br i1 %39, label %40, label %67

40:                                               ; preds = %33
  %41 = load i32, i32* %5, align 4
  %42 = sext i32 %41 to i64
  %43 = getelementptr inbounds [250 x i8], [250 x i8]* %2, i64 0, i64 %42
  %44 = load i8, i8* %43, align 1
  %45 = sext i8 %44 to i32
  %46 = icmp ne i32 %45, 44
  br i1 %46, label %47, label %67

47:                                               ; preds = %40
  %48 = load i32, i32* %5, align 4
  %49 = sext i32 %48 to i64
  %50 = getelementptr inbounds [250 x i8], [250 x i8]* %2, i64 0, i64 %49
  %51 = load i8, i8* %50, align 1
  %52 = sext i8 %51 to i32
  %53 = icmp ne i32 %52, 0
  br i1 %53, label %54, label %67

54:                                               ; preds = %47
  %55 = load i32, i32* %5, align 4
  %56 = sext i32 %55 to i64
  %57 = getelementptr inbounds [250 x i8], [250 x i8]* %2, i64 0, i64 %56
  %58 = load i8, i8* %57, align 1
  %59 = load i32, i32* %6, align 4
  %60 = sext i32 %59 to i64
  %61 = getelementptr inbounds [50 x [200 x i8]], [50 x [200 x i8]]* %3, i64 0, i64 %60
  %62 = load i32, i32* %9, align 4
  %63 = sext i32 %62 to i64
  %64 = getelementptr inbounds [200 x i8], [200 x i8]* %61, i64 0, i64 %63
  store i8 %58, i8* %64, align 1
  %65 = load i32, i32* %9, align 4
  %66 = add nsw i32 %65, 1
  store i32 %66, i32* %9, align 4
  br label %76

67:                                               ; preds = %47, %40, %33
  %68 = load i32, i32* %6, align 4
  %69 = sext i32 %68 to i64
  %70 = getelementptr inbounds [50 x [200 x i8]], [50 x [200 x i8]]* %3, i64 0, i64 %69
  %71 = load i32, i32* %9, align 4
  %72 = sext i32 %71 to i64
  %73 = getelementptr inbounds [200 x i8], [200 x i8]* %70, i64 0, i64 %72
  store i8 0, i8* %73, align 1
  store i32 0, i32* %9, align 4
  %74 = load i32, i32* %6, align 4
  %75 = add nsw i32 %74, 1
  store i32 %75, i32* %6, align 4
  br label %76

76:                                               ; preds = %67, %54
  %77 = load i32, i32* %5, align 4
  %78 = add nsw i32 %77, 1
  store i32 %78, i32* %5, align 4
  br label %79

79:                                               ; preds = %76
  %80 = load i32, i32* %5, align 4
  %81 = sub nsw i32 %80, 1
  %82 = sext i32 %81 to i64
  %83 = getelementptr inbounds [250 x i8], [250 x i8]* %2, i64 0, i64 %82
  %84 = load i8, i8* %83, align 1
  %85 = sext i8 %84 to i32
  %86 = icmp ne i32 %85, 0
  br i1 %86, label %33, label %87

87:                                               ; preds = %79
  %88 = load i32, i32* %6, align 4
  store i32 %88, i32* %7, align 4
  store i32 0, i32* %5, align 4
  br label %89

89:                                               ; preds = %103, %87
  %90 = load i32, i32* %5, align 4
  %91 = load i32, i32* %7, align 4
  %92 = icmp slt i32 %90, %91
  br i1 %92, label %93, label %106

93:                                               ; preds = %89
  %94 = load i32, i32* %5, align 4
  %95 = sext i32 %94 to i64
  %96 = getelementptr inbounds [50 x [200 x i8]], [50 x [200 x i8]]* %3, i64 0, i64 %95
  %97 = getelementptr inbounds [200 x i8], [200 x i8]* %96, i64 0, i64 0
  %98 = call i64 @strlen(i8* %97) #3
  %99 = trunc i64 %98 to i32
  %100 = load i32, i32* %5, align 4
  %101 = sext i32 %100 to i64
  %102 = getelementptr inbounds [100 x i32], [100 x i32]* %4, i64 0, i64 %101
  store i32 %99, i32* %102, align 4
  br label %103

103:                                              ; preds = %93
  %104 = load i32, i32* %5, align 4
  %105 = add nsw i32 %104, 1
  store i32 %105, i32* %5, align 4
  br label %89

106:                                              ; preds = %89
  store i32 0, i32* %5, align 4
  store i32 0, i32* %6, align 4
  br label %107

107:                                              ; preds = %125, %106
  %108 = load i32, i32* %6, align 4
  %109 = load i32, i32* %7, align 4
  %110 = icmp slt i32 %108, %109
  br i1 %110, label %111, label %128

111:                                              ; preds = %107
  %112 = load i32, i32* %6, align 4
  %113 = sext i32 %112 to i64
  %114 = getelementptr inbounds [100 x i32], [100 x i32]* %4, i64 0, i64 %113
  %115 = load i32, i32* %114, align 4
  %116 = load i32, i32* %8, align 4
  %117 = icmp sgt i32 %115, %116
  br i1 %117, label %118, label %124

118:                                              ; preds = %111
  %119 = load i32, i32* %6, align 4
  %120 = sext i32 %119 to i64
  %121 = getelementptr inbounds [100 x i32], [100 x i32]* %4, i64 0, i64 %120
  %122 = load i32, i32* %121, align 4
  store i32 %122, i32* %8, align 4
  %123 = load i32, i32* %6, align 4
  store i32 %123, i32* %10, align 4
  br label %124

124:                                              ; preds = %118, %111
  br label %125

125:                                              ; preds = %124
  %126 = load i32, i32* %6, align 4
  %127 = add nsw i32 %126, 1
  store i32 %127, i32* %6, align 4
  br label %107

128:                                              ; preds = %107
  %129 = load i32, i32* %10, align 4
  %130 = sext i32 %129 to i64
  %131 = getelementptr inbounds [50 x [200 x i8]], [50 x [200 x i8]]* %3, i64 0, i64 %130
  %132 = getelementptr inbounds [200 x i8], [200 x i8]* %131, i64 0, i64 0
  %133 = call i32 (i8*, ...) @printf(i8* getelementptr inbounds ([4 x i8], [4 x i8]* @.str.1, i64 0, i64 0), i8* %132)
  store i32 0, i32* %6, align 4
  br label %134

134:                                              ; preds = %158, %128
  %135 = load i32, i32* %6, align 4
  %136 = load i32, i32* %7, align 4
  %137 = icmp slt i32 %135, %136
  br i1 %137, label %138, label %161

138:                                              ; preds = %134
  %139 = load i32, i32* %6, align 4
  %140 = sext i32 %139 to i64
  %141 = getelementptr inbounds [100 x i32], [100 x i32]* %4, i64 0, i64 %140
  %142 = load i32, i32* %141, align 4
  %143 = load i32, i32* %8, align 4
  %144 = icmp slt i32 %142, %143
  br i1 %144, label %145, label %157

145:                                              ; preds = %138
  %146 = load i32, i32* %6, align 4
  %147 = sext i32 %146 to i64
  %148 = getelementptr inbounds [100 x i32], [100 x i32]* %4, i64 0, i64 %147
  %149 = load i32, i32* %148, align 4
  %150 = icmp sgt i32 %149, 0
  br i1 %150, label %151, label %157

151:                                              ; preds = %145
  %152 = load i32, i32* %6, align 4
  %153 = sext i32 %152 to i64
  %154 = getelementptr inbounds [100 x i32], [100 x i32]* %4, i64 0, i64 %153
  %155 = load i32, i32* %154, align 4
  store i32 %155, i32* %8, align 4
  %156 = load i32, i32* %6, align 4
  store i32 %156, i32* %10, align 4
  br label %157

157:                                              ; preds = %151, %145, %138
  br label %158

158:                                              ; preds = %157
  %159 = load i32, i32* %6, align 4
  %160 = add nsw i32 %159, 1
  store i32 %160, i32* %6, align 4
  br label %134

161:                                              ; preds = %134
  %162 = load i32, i32* %10, align 4
  %163 = sext i32 %162 to i64
  %164 = getelementptr inbounds [50 x [200 x i8]], [50 x [200 x i8]]* %3, i64 0, i64 %163
  %165 = getelementptr inbounds [200 x i8], [200 x i8]* %164, i64 0, i64 0
  %166 = call i32 (i8*, ...) @printf(i8* getelementptr inbounds ([4 x i8], [4 x i8]* @.str.1, i64 0, i64 0), i8* %165)
  ret i32 0
}

declare dso_local i32 @__isoc99_scanf(i8*, ...) #1

; Function Attrs: nounwind readonly
declare dso_local i64 @strlen(i8*) #2

declare dso_local i32 @printf(i8*, ...) #1


!llvm.module.flags = !{!0}
!llvm.ident = !{!1}

!0 = !{i32 1, !"wchar_size", i32 4}
!1 = !{!"clang version 10.0.0-4ubuntu1 "}
